target datalayout = "e-m:e-p270:32:32-p271:32:32-p272:64:64-i64:64-i128:128-f80:128-n8:16:32:64-S128"
target triple = "x86_64-pc-linux-gnu"

%struct.__va_list_tag = type { i32, i32, ptr, ptr }

@g_Parallel = global i8 0, align 1
@overflow_file = global ptr null, align 8
@outBuff = global [2048 x i8] zeroinitializer, align 16
@outBuffOffset = global i32 0, align 4
@rawerrorstream = external global ptr, align 8
@.str = private unnamed_addr constant [68 x i8] c"warning: could not create overflow file.  Output may be truncated.\0A\00", align 1

; Function Attrs: nounwind uwtable
define void @parallel_print(ptr noundef %0, ...) #0 {
  %2 = alloca ptr, align 8
  %3 = alloca i32, align 4
  %4 = alloca [1 x %struct.__va_list_tag], align 16
  store ptr %0, ptr %2, align 8
  %5 = getelementptr inbounds [1 x %struct.__va_list_tag], ptr %4, i64 0, i64 0
  call void @llvm.va_start.p0(ptr %5)
  %6 = load i8, ptr @g_Parallel, align 1
  %7 = icmp ne i8 %6, 0
  br i1 %7, label %12, label %8

8:                                                ; preds = %1
  %9 = load ptr, ptr %2, align 8
  %10 = getelementptr inbounds [1 x %struct.__va_list_tag], ptr %4, i64 0, i64 0
  %11 = call i32 @vprintf(ptr noundef %9, ptr noundef %10) #12
  br label %61

12:                                               ; preds = %1
  %13 = load ptr, ptr @overflow_file, align 8
  %14 = icmp eq ptr %13, null
  br i1 %14, label %15, label %55

15:                                               ; preds = %12
  %16 = load i32, ptr @outBuffOffset, align 4
  %17 = zext i32 %16 to i64
  %18 = getelementptr inbounds i8, ptr @outBuff, i64 %17
  %19 = load i32, ptr @outBuffOffset, align 4
  %20 = sub i32 2048, %19
  %21 = zext i32 %20 to i64
  %22 = load ptr, ptr %2, align 8
  %23 = getelementptr inbounds [1 x %struct.__va_list_tag], ptr %4, i64 0, i64 0
  %24 = call i32 @vsnprintf(ptr noundef %18, i64 noundef %21, ptr noundef %22, ptr noundef %23) #12
  store i32 %24, ptr %3, align 4
  %25 = getelementptr inbounds [1 x %struct.__va_list_tag], ptr %4, i64 0, i64 0
  call void @llvm.va_end.p0(ptr %25)
  %26 = getelementptr inbounds [1 x %struct.__va_list_tag], ptr %4, i64 0, i64 0
  call void @llvm.va_start.p0(ptr %26)
  %27 = load i32, ptr %3, align 4
  %28 = icmp slt i32 %27, 0
  br i1 %28, label %34, label %29

29:                                               ; preds = %15
  %30 = load i32, ptr %3, align 4
  %31 = load i32, ptr @outBuffOffset, align 4
  %32 = sub i32 2048, %31
  %33 = icmp uge i32 %30, %32
  br i1 %33, label %34, label %50

34:                                               ; preds = %29, %15
  %35 = load i32, ptr @outBuffOffset, align 4
  %36 = zext i32 %35 to i64
  %37 = getelementptr inbounds [2048 x i8], ptr @outBuff, i64 0, i64 %36
  store i8 0, ptr %37, align 1
  %38 = call noalias ptr @tmpfile64()
  store ptr %38, ptr @overflow_file, align 8
  %39 = load ptr, ptr @overflow_file, align 8
  %40 = icmp eq ptr %39, null
  br i1 %40, label %41, label %44

41:                                               ; preds = %34
  %42 = load ptr, ptr @rawerrorstream, align 8
  %43 = call i32 (ptr, ptr, ...) @fprintf(ptr noundef %42, ptr noundef @.str) #12
  br label %49

44:                                               ; preds = %34
  %45 = load ptr, ptr @overflow_file, align 8
  %46 = load ptr, ptr %2, align 8
  %47 = getelementptr inbounds [1 x %struct.__va_list_tag], ptr %4, i64 0, i64 0
  %48 = call i32 @vfprintf(ptr noundef %45, ptr noundef %46, ptr noundef %47) #12
  store i32 %48, ptr %3, align 4
  br label %49

49:                                               ; preds = %44, %41
  br label %54

50:                                               ; preds = %29
  %51 = load i32, ptr %3, align 4
  %52 = load i32, ptr @outBuffOffset, align 4
  %53 = add i32 %52, %51
  store i32 %53, ptr @outBuffOffset, align 4
  br label %54

54:                                               ; preds = %50, %49
  br label %60

55:                                               ; preds = %12
  %56 = load ptr, ptr @overflow_file, align 8
  %57 = load ptr, ptr %2, align 8
  %58 = getelementptr inbounds [1 x %struct.__va_list_tag], ptr %4, i64 0, i64 0
  %59 = call i32 @vfprintf(ptr noundef %56, ptr noundef %57, ptr noundef %58) #12
  store i32 %59, ptr %3, align 4
  br label %60

60:                                               ; preds = %55, %54
  br label %61

61:                                               ; preds = %60, %8
  %62 = getelementptr inbounds [1 x %struct.__va_list_tag], ptr %4, i64 0, i64 0
  call void @llvm.va_end.p0(ptr %62)
  ret void
}