; Function Attrs: nofree nounwind uwtable
define void @parallel_print(ptr noundef readonly captures(none) %0, ...) local_unnamed_addr #0 {
  %2 = alloca [1 x %struct.__va_list_tag], align 16
  call void @llvm.va_start.p0(ptr nonnull %2)
  %3 = load i8, ptr @g_Parallel, align 1
  %.not = icmp eq i8 %3, 0
  br i1 %.not, label %4, label %6

4:                                                ; preds = %1
  %5 = call i32 @vprintf(ptr noundef %0, ptr noundef nonnull %2) #23
  br label %32

6:                                                ; preds = %1
  %7 = load ptr, ptr @overflow_file, align 8
  %8 = icmp eq ptr %7, null
  br i1 %8, label %9, label %30

9:                                                ; preds = %6
  %10 = load i32, ptr @outBuffOffset, align 4
  %11 = zext i32 %10 to i64
  %12 = getelementptr inbounds nuw i8, ptr @outBuff, i64 %11
  %13 = sub i32 2048, %10
  %14 = zext i32 %13 to i64
  %15 = call i32 @vsnprintf(ptr noundef nonnull %12, i64 noundef %14, ptr noundef %0, ptr noundef nonnull %2) #23
  call void @llvm.va_end.p0(ptr nonnull %2)
  call void @llvm.va_start.p0(ptr nonnull %2)
  %16 = icmp sgt i32 %15, -1
  %.pre = load i32, ptr @outBuffOffset, align 4
  %17 = sub i32 2048, %.pre
  %.not8 = icmp ult i32 %15, %17
  %or.cond = select i1 %16, i1 %.not8, i1 false
  br i1 %or.cond, label %28, label %18

18:                                               ; preds = %9
  %19 = zext i32 %.pre to i64
  %20 = getelementptr inbounds nuw [2048 x i8], ptr @outBuff, i64 0, i64 %19
  store i8 0, ptr %20, align 1
  %21 = call noalias ptr @tmpfile64()
  store ptr %21, ptr @overflow_file, align 8
  %22 = icmp eq ptr %21, null
  br i1 %22, label %23, label %26

23:                                               ; preds = %18
  %24 = load ptr, ptr @rawerrorstream, align 8
  %25 = call i64 @fwrite(ptr nonnull @.str, i64 67, i64 1, ptr %24)
  br label %32

26:                                               ; preds = %18
  %27 = call i32 @vfprintf(ptr noundef nonnull %21, ptr noundef %0, ptr noundef nonnull %2) #23
  br label %32

28:                                               ; preds = %9
  %29 = add i32 %.pre, %15
  store i32 %29, ptr @outBuffOffset, align 4
  br label %32

30:                                               ; preds = %6
  %31 = call i32 @vfprintf(ptr noundef nonnull %7, ptr noundef %0, ptr noundef nonnull %2) #23
  br label %32

32:                                               ; preds = %30, %23, %26, %28, %4
  call void @llvm.va_end.p0(ptr nonnull %2)
  ret void
}